target datalayout = "e-m:e-p270:32:32-p271:32:32-p272:64:64-i64:64-i128:128-f80:128-n8:16:32:64-S128"
target triple = "x86_64-pc-linux-gnu"

%struct.__va_list_tag = type { i32, i32, ptr, ptr }

; Function Attrs: mustprogress uwtable
define void @_ZN6google8protobuf13StringAppendVEPNSt7__cxx1112basic_stringIcSt11char_traitsIcESaIcEEEPKcP13__va_list_tag(ptr noundef %0, ptr noundef %1, ptr noundef %2) #4 {
  %4 = alloca ptr, align 8
  %5 = alloca ptr, align 8
  %6 = alloca ptr, align 8
  %7 = alloca [1024 x i8], align 16
  %8 = alloca [1 x %struct.__va_list_tag], align 16
  %9 = alloca i32, align 4
  %10 = alloca i32, align 4
  %11 = alloca ptr, align 8
  store ptr %0, ptr %4, align 8
  store ptr %1, ptr %5, align 8
  store ptr %2, ptr %6, align 8
  %12 = getelementptr inbounds [1 x %struct.__va_list_tag], ptr %8, i64 0, i64 0
  %13 = load ptr, ptr %6, align 8
  call void @llvm.va_copy.p0(ptr %12, ptr %13)
  %14 = getelementptr inbounds [1024 x i8], ptr %7, i64 0, i64 0
  %15 = load ptr, ptr %5, align 8
  %16 = getelementptr inbounds [1 x %struct.__va_list_tag], ptr %8, i64 0, i64 0
  %17 = call i32 @vsnprintf(ptr noundef %14, i64 noundef 1024, ptr noundef %15, ptr noundef %16) #3
  store i32 %17, ptr %9, align 4
  %18 = getelementptr inbounds [1 x %struct.__va_list_tag], ptr %8, i64 0, i64 0
  call void @llvm.va_end.p0(ptr %18)
  %19 = load i32, ptr %9, align 4
  %20 = icmp slt i32 %19, 1024
  br i1 %20, label %21, label %35

21:                                               ; preds = %3
  %22 = load i32, ptr %9, align 4
  %23 = icmp sge i32 %22, 0
  br i1 %23, label %24, label %30

24:                                               ; preds = %21
  %25 = load ptr, ptr %4, align 8
  %26 = getelementptr inbounds [1024 x i8], ptr %7, i64 0, i64 0
  %27 = load i32, ptr %9, align 4
  %28 = sext i32 %27 to i64
  %29 = call noundef nonnull align 8 dereferenceable(32) ptr @_ZNSt7__cxx1112basic_stringIcSt11char_traitsIcESaIcEE6appendEPKcm(ptr noundef nonnull align 8 dereferenceable(32) %25, ptr noundef %26, i64 noundef %28)
  br label %66

30:                                               ; preds = %21
  %31 = load i32, ptr %9, align 4
  %32 = icmp slt i32 %31, 0
  br i1 %32, label %33, label %34

33:                                               ; preds = %30
  br label %66

34:                                               ; preds = %30
  br label %35

35:                                               ; preds = %34, %3
  %36 = load i32, ptr %9, align 4
  %37 = add nsw i32 %36, 1
  store i32 %37, ptr %10, align 4
  %38 = load i32, ptr %10, align 4
  %39 = sext i32 %38 to i64
  %40 = call noalias noundef nonnull ptr @_Znam(i64 noundef %39) #9
  store ptr %40, ptr %11, align 8
  %41 = getelementptr inbounds [1 x %struct.__va_list_tag], ptr %8, i64 0, i64 0
  %42 = load ptr, ptr %6, align 8
  call void @llvm.va_copy.p0(ptr %41, ptr %42)
  %43 = load ptr, ptr %11, align 8
  %44 = load i32, ptr %10, align 4
  %45 = sext i32 %44 to i64
  %46 = load ptr, ptr %5, align 8
  %47 = getelementptr inbounds [1 x %struct.__va_list_tag], ptr %8, i64 0, i64 0
  %48 = call i32 @vsnprintf(ptr noundef %43, i64 noundef %45, ptr noundef %46, ptr noundef %47) #3
  store i32 %48, ptr %9, align 4
  %49 = getelementptr inbounds [1 x %struct.__va_list_tag], ptr %8, i64 0, i64 0
  call void @llvm.va_end.p0(ptr %49)
  %50 = load i32, ptr %9, align 4
  %51 = icmp sge i32 %50, 0
  br i1 %51, label %52, label %62

52:                                               ; preds = %35
  %53 = load i32, ptr %9, align 4
  %54 = load i32, ptr %10, align 4
  %55 = icmp slt i32 %53, %54
  br i1 %55, label %56, label %62

56:                                               ; preds = %52
  %57 = load ptr, ptr %4, align 8
  %58 = load ptr, ptr %11, align 8
  %59 = load i32, ptr %9, align 4
  %60 = sext i32 %59 to i64
  %61 = call noundef nonnull align 8 dereferenceable(32) ptr @_ZNSt7__cxx1112basic_stringIcSt11char_traitsIcESaIcEE6appendEPKcm(ptr noundef nonnull align 8 dereferenceable(32) %57, ptr noundef %58, i64 noundef %60)
  br label %62

62:                                               ; preds = %56, %52, %35
  %63 = load ptr, ptr %11, align 8
  %64 = icmp eq ptr %63, null
  br i1 %64, label %66, label %65

65:                                               ; preds = %62
  call void @_ZdaPv(ptr noundef %63) #10
  br label %66

66:                                               ; preds = %65, %62, %33, %24
  ret void
}