; Function Attrs: mustprogress uwtable
define void @_ZN6google8protobuf13StringAppendVEPNSt7__cxx1112basic_stringIcSt11char_traitsIcESaIcEEEPKcP13__va_list_tag(ptr noundef %0, ptr nocapture noundef readonly %1, ptr noundef %2) local_unnamed_addr #3 {
  %4 = alloca [1024 x i8], align 16
  %5 = alloca [1 x %struct.__va_list_tag], align 16
  call void @llvm.va_copy.p0(ptr nonnull %5, ptr %2)
  %6 = call i32 @vsnprintf(ptr noundef nonnull %4, i64 noundef 1024, ptr noundef %1, ptr noundef nonnull %5) #9
  call void @llvm.va_end.p0(ptr nonnull %5)
  %7 = icmp slt i32 %6, 1024
  br i1 %7, label %8, label %13

8:                                                ; preds = %3
  %9 = icmp sgt i32 %6, -1
  br i1 %9, label %10, label %22

10:                                               ; preds = %8
  %11 = zext nneg i32 %6 to i64
  %12 = call noundef nonnull align 8 dereferenceable(32) ptr @_ZNSt7__cxx1112basic_stringIcSt11char_traitsIcESaIcEE6appendEPKcm(ptr noundef nonnull align 8 dereferenceable(32) %0, ptr noundef nonnull %4, i64 noundef %11)
  br label %22

13:                                               ; preds = %3
  %14 = add nuw nsw i32 %6, 1
  %15 = zext nneg i32 %14 to i64
  %16 = call noalias noundef nonnull ptr @_Znam(i64 noundef %15) #10
  call void @llvm.va_copy.p0(ptr nonnull %5, ptr %2)
  %17 = call i32 @vsnprintf(ptr noundef nonnull %16, i64 noundef %15, ptr noundef %1, ptr noundef nonnull %5) #9
  call void @llvm.va_end.p0(ptr nonnull %5)
  %or.cond = icmp ugt i32 %17, %6
  br i1 %or.cond, label %21, label %18

18:                                               ; preds = %13
  %19 = zext nneg i32 %17 to i64
  %20 = call noundef nonnull align 8 dereferenceable(32) ptr @_ZNSt7__cxx1112basic_stringIcSt11char_traitsIcESaIcEE6appendEPKcm(ptr noundef nonnull align 8 dereferenceable(32) %0, ptr noundef nonnull %16, i64 noundef %19)
  br label %21

21:                                               ; preds = %13, %18
  call void @_ZdaPv(ptr noundef nonnull %16) #11
  br label %22

22:                                               ; preds = %8, %21, %10
  ret void
}